; ModuleID = '30/1983.c'
source_filename = "30/1983.c"
target datalayout = "e-m:e-p270:32:32-p271:32:32-p272:64:64-i64:64-f80:128-n8:16:32:64-S128"
target triple = "x86_64-pc-linux-gnu"

@.str = private unnamed_addr constant [3 x i8] c"%d\00", align 1

; Function Attrs: noinline nounwind uwtable
define dso_local i32 @main() #0 {
  %1 = alloca i32, align 4
  %2 = alloca i32, align 4
  %3 = alloca i32, align 4
  %4 = alloca i32, align 4
  store i32 0, i32* %1, align 4
  store i32 0, i32* %4, align 4
  %5 = call i32 (i8*, ...) @__isoc99_scanf(i8* getelementptr inbounds ([3 x i8], [3 x i8]* @.str, i64 0, i64 0), i32* %3)
  store i32 1, i32* %2, align 4
  br label %6

6:                                                ; preds = %42, %0
  %7 = load i32, i32* %2, align 4
  %8 = load i32, i32* %3, align 4
  %9 = icmp sle i32 %7, %8
  br i1 %9, label %10, label %45

10:                                               ; preds = %6
  %11 = load i32, i32* %2, align 4
  %12 = srem i32 %11, 7
  %13 = icmp ne i32 %12, 0
  br i1 %13, label %14, label %28

14:                                               ; preds = %10
  %15 = load i32, i32* %2, align 4
  %16 = sdiv i32 %15, 10
  %17 = icmp ne i32 %16, 7
  br i1 %17, label %18, label %28

18:                                               ; preds = %14
  %19 = load i32, i32* %2, align 4
  %20 = srem i32 %19, 10
  %21 = icmp ne i32 %20, 7
  br i1 %21, label %22, label %28

22:                                               ; preds = %18
  %23 = load i32, i32* %2, align 4
  %24 = load i32, i32* %2, align 4
  %25 = mul nsw i32 %23, %24
  %26 = load i32, i32* %4, align 4
  %27 = add nsw i32 %26, %25
  store i32 %27, i32* %4, align 4
  br label %28

28:                                               ; preds = %22, %18, %14, %10
  %29 = load i32, i32* %2, align 4
  %30 = srem i32 %29, 7
  %31 = icmp eq i32 %30, 0
  br i1 %31, label %40, label %32

32:                                               ; preds = %28
  %33 = load i32, i32* %2, align 4
  %34 = sdiv i32 %33, 10
  %35 = icmp eq i32 %34, 7
  br i1 %35, label %40, label %36

36:                                               ; preds = %32
  %37 = load i32, i32* %2, align 4
  %38 = srem i32 %37, 10
  %39 = icmp eq i32 %38, 7
  br i1 %39, label %40, label %41

40:                                               ; preds = %36, %32, %28
  br label %42

41:                                               ; preds = %36
  br label %42

42:                                               ; preds = %41, %40
  %43 = load i32, i32* %2, align 4
  %44 = add nsw i32 %43, 1
  store i32 %44, i32* %2, align 4
  br label %6

45:                                               ; preds = %6
  %46 = load i32, i32* %4, align 4
  %47 = call i32 (i8*, ...) @printf(i8* getelementptr inbounds ([3 x i8], [3 x i8]* @.str, i64 0, i64 0), i32 %46)
  ret i32 0
}

declare dso_local i32 @__isoc99_scanf(i8*, ...) #1

declare dso_local i32 @printf(i8*, ...) #1


!llvm.module.flags = !{!0}
!llvm.ident = !{!1}

!0 = !{i32 1, !"wchar_size", i32 4}
!1 = !{!"clang version 10.0.0-4ubuntu1 "}
